target datalayout = "e-m:e-p270:32:32-p271:32:32-p272:64:64-i64:64-i128:128-f80:128-n8:16:32:64-S128"
target triple = "x86_64-pc-linux-gnu"

%struct.b2Vec2 = type { float, float }
%struct.b2Transform = type { %struct.b2Vec2, %struct.b2Rot }
%struct.b2Rot = type { float, float }
%struct.b2AABB = type { %struct.b2Vec2, %struct.b2Vec2 }
%struct.b2Segment = type { %struct.b2Vec2, %struct.b2Vec2 }

; Function Attrs: inlinehint nounwind uwtable
define internal float @b2MaxFloat(float noundef %0, float noundef %1) #7 {
  %3 = alloca float, align 4
  %4 = alloca float, align 4
  store float %0, ptr %3, align 4, !tbaa !12
  store float %1, ptr %4, align 4, !tbaa !12
  %5 = load float, ptr %3, align 4, !tbaa !12
  %6 = load float, ptr %4, align 4, !tbaa !12
  %7 = fcmp ogt float %5, %6
  br i1 %7, label %8, label %10

8:                                                ; preds = %2
  %9 = load float, ptr %3, align 4, !tbaa !12
  br label %12

10:                                               ; preds = %2
  %11 = load float, ptr %4, align 4, !tbaa !12
  br label %12

12:                                               ; preds = %10, %8
  %13 = phi float [ %9, %8 ], [ %11, %10 ]
  ret float %13
}

; Function Attrs: inlinehint nounwind uwtable
define internal float @b2MinFloat(float noundef %0, float noundef %1) #7 {
  %3 = alloca float, align 4
  %4 = alloca float, align 4
  store float %0, ptr %3, align 4, !tbaa !12
  store float %1, ptr %4, align 4, !tbaa !12
  %5 = load float, ptr %3, align 4, !tbaa !12
  %6 = load float, ptr %4, align 4, !tbaa !12
  %7 = fcmp olt float %5, %6
  br i1 %7, label %8, label %10

8:                                                ; preds = %2
  %9 = load float, ptr %3, align 4, !tbaa !12
  br label %12

10:                                               ; preds = %2
  %11 = load float, ptr %4, align 4, !tbaa !12
  br label %12

12:                                               ; preds = %10, %8
  %13 = phi float [ %9, %8 ], [ %11, %10 ]
  ret float %13
}

; Function Attrs: inlinehint nounwind uwtable
define internal <2 x float> @b2Max(<2 x float> %0, <2 x float> %1) #6 {
  %3 = alloca %struct.b2Vec2, align 4
  %4 = alloca %struct.b2Vec2, align 4
  %5 = alloca %struct.b2Vec2, align 4
  store <2 x float> %0, ptr %4, align 4
  store <2 x float> %1, ptr %5, align 4
  %6 = getelementptr inbounds nuw %struct.b2Vec2, ptr %4, i32 0, i32 0
  %7 = load float, ptr %6, align 4, !tbaa !30
  %8 = getelementptr inbounds nuw %struct.b2Vec2, ptr %5, i32 0, i32 0
  %9 = load float, ptr %8, align 4, !tbaa !30
  %10 = call float @b2MaxFloat(float noundef %7, float noundef %9)
  %11 = getelementptr inbounds nuw %struct.b2Vec2, ptr %3, i32 0, i32 0
  store float %10, ptr %11, align 4, !tbaa !30
  %12 = getelementptr inbounds nuw %struct.b2Vec2, ptr %4, i32 0, i32 1
  %13 = load float, ptr %12, align 4, !tbaa !31
  %14 = getelementptr inbounds nuw %struct.b2Vec2, ptr %5, i32 0, i32 1
  %15 = load float, ptr %14, align 4, !tbaa !31
  %16 = call float @b2MaxFloat(float noundef %13, float noundef %15)
  %17 = getelementptr inbounds nuw %struct.b2Vec2, ptr %3, i32 0, i32 1
  store float %16, ptr %17, align 4, !tbaa !31
  %18 = load <2 x float>, ptr %3, align 4
  ret <2 x float> %18
}

; Function Attrs: inlinehint nounwind uwtable
define internal <2 x float> @b2Min(<2 x float> %0, <2 x float> %1) #6 {
  %3 = alloca %struct.b2Vec2, align 4
  %4 = alloca %struct.b2Vec2, align 4
  %5 = alloca %struct.b2Vec2, align 4
  store <2 x float> %0, ptr %4, align 4
  store <2 x float> %1, ptr %5, align 4
  %6 = getelementptr inbounds nuw %struct.b2Vec2, ptr %4, i32 0, i32 0
  %7 = load float, ptr %6, align 4, !tbaa !30
  %8 = getelementptr inbounds nuw %struct.b2Vec2, ptr %5, i32 0, i32 0
  %9 = load float, ptr %8, align 4, !tbaa !30
  %10 = call float @b2MinFloat(float noundef %7, float noundef %9)
  %11 = getelementptr inbounds nuw %struct.b2Vec2, ptr %3, i32 0, i32 0
  store float %10, ptr %11, align 4, !tbaa !30
  %12 = getelementptr inbounds nuw %struct.b2Vec2, ptr %4, i32 0, i32 1
  %13 = load float, ptr %12, align 4, !tbaa !31
  %14 = getelementptr inbounds nuw %struct.b2Vec2, ptr %5, i32 0, i32 1
  %15 = load float, ptr %14, align 4, !tbaa !31
  %16 = call float @b2MinFloat(float noundef %13, float noundef %15)
  %17 = getelementptr inbounds nuw %struct.b2Vec2, ptr %3, i32 0, i32 1
  store float %16, ptr %17, align 4, !tbaa !31
  %18 = load <2 x float>, ptr %3, align 4
  ret <2 x float> %18
}

; Function Attrs: inlinehint nounwind uwtable
define internal <2 x float> @b2TransformPoint(<2 x float> %0, <2 x float> %1, <2 x float> %2) #6 {
  %4 = alloca %struct.b2Vec2, align 4
  %5 = alloca %struct.b2Transform, align 4
  %6 = alloca %struct.b2Vec2, align 4
  %7 = alloca float, align 4
  %8 = alloca float, align 4
  %9 = getelementptr inbounds nuw { <2 x float>, <2 x float> }, ptr %5, i32 0, i32 0
  store <2 x float> %0, ptr %9, align 4
  %10 = getelementptr inbounds nuw { <2 x float>, <2 x float> }, ptr %5, i32 0, i32 1
  store <2 x float> %1, ptr %10, align 4
  store <2 x float> %2, ptr %6, align 4
  call void @llvm.lifetime.start.p0(i64 4, ptr %7) #9
  %11 = getelementptr inbounds nuw %struct.b2Transform, ptr %5, i32 0, i32 1
  %12 = getelementptr inbounds nuw %struct.b2Rot, ptr %11, i32 0, i32 0
  %13 = load float, ptr %12, align 4, !tbaa !37
  %14 = getelementptr inbounds nuw %struct.b2Vec2, ptr %6, i32 0, i32 0
  %15 = load float, ptr %14, align 4, !tbaa !30
  %16 = fmul float %13, %15
  %17 = getelementptr inbounds nuw %struct.b2Transform, ptr %5, i32 0, i32 1
  %18 = getelementptr inbounds nuw %struct.b2Rot, ptr %17, i32 0, i32 1
  %19 = load float, ptr %18, align 4, !tbaa !40
  %20 = getelementptr inbounds nuw %struct.b2Vec2, ptr %6, i32 0, i32 1
  %21 = load float, ptr %20, align 4, !tbaa !31
  %22 = fmul float %19, %21
  %23 = fsub float %16, %22
  %24 = getelementptr inbounds nuw %struct.b2Transform, ptr %5, i32 0, i32 0
  %25 = getelementptr inbounds nuw %struct.b2Vec2, ptr %24, i32 0, i32 0
  %26 = load float, ptr %25, align 4, !tbaa !41
  %27 = fadd float %23, %26
  store float %27, ptr %7, align 4, !tbaa !12
  call void @llvm.lifetime.start.p0(i64 4, ptr %8) #9
  %28 = getelementptr inbounds nuw %struct.b2Transform, ptr %5, i32 0, i32 1
  %29 = getelementptr inbounds nuw %struct.b2Rot, ptr %28, i32 0, i32 1
  %30 = load float, ptr %29, align 4, !tbaa !40
  %31 = getelementptr inbounds nuw %struct.b2Vec2, ptr %6, i32 0, i32 0
  %32 = load float, ptr %31, align 4, !tbaa !30
  %33 = fmul float %30, %32
  %34 = getelementptr inbounds nuw %struct.b2Transform, ptr %5, i32 0, i32 1
  %35 = getelementptr inbounds nuw %struct.b2Rot, ptr %34, i32 0, i32 0
  %36 = load float, ptr %35, align 4, !tbaa !37
  %37 = getelementptr inbounds nuw %struct.b2Vec2, ptr %6, i32 0, i32 1
  %38 = load float, ptr %37, align 4, !tbaa !31
  %39 = fmul float %36, %38
  %40 = fadd float %33, %39
  %41 = getelementptr inbounds nuw %struct.b2Transform, ptr %5, i32 0, i32 0
  %42 = getelementptr inbounds nuw %struct.b2Vec2, ptr %41, i32 0, i32 1
  %43 = load float, ptr %42, align 4, !tbaa !42
  %44 = fadd float %40, %43
  store float %44, ptr %8, align 4, !tbaa !12
  %45 = getelementptr inbounds nuw %struct.b2Vec2, ptr %4, i32 0, i32 0
  %46 = load float, ptr %7, align 4, !tbaa !12
  store float %46, ptr %45, align 4, !tbaa !30
  %47 = getelementptr inbounds nuw %struct.b2Vec2, ptr %4, i32 0, i32 1
  %48 = load float, ptr %8, align 4, !tbaa !12
  store float %48, ptr %47, align 4, !tbaa !31
  call void @llvm.lifetime.end.p0(i64 4, ptr %8) #9
  call void @llvm.lifetime.end.p0(i64 4, ptr %7) #9
  %49 = load <2 x float>, ptr %4, align 4
  ret <2 x float> %49
}

; Function Attrs: nounwind uwtable
define { <2 x float>, <2 x float> } @b2ComputeSegmentAABB(ptr noundef %0, <2 x float> %1, <2 x float> %2) #0 {
  %4 = alloca %struct.b2AABB, align 4
  %5 = alloca %struct.b2Transform, align 4
  %6 = alloca ptr, align 8
  %7 = alloca %struct.b2Vec2, align 4
  %8 = alloca %struct.b2Vec2, align 4
  %9 = alloca %struct.b2Vec2, align 4
  %10 = alloca %struct.b2Vec2, align 4
  %11 = getelementptr inbounds nuw { <2 x float>, <2 x float> }, ptr %5, i32 0, i32 0
  store <2 x float> %1, ptr %11, align 4
  %12 = getelementptr inbounds nuw { <2 x float>, <2 x float> }, ptr %5, i32 0, i32 1
  store <2 x float> %2, ptr %12, align 4
  store ptr %0, ptr %6, align 8, !tbaa !67
  call void @llvm.lifetime.start.p0(i64 8, ptr %7) #9
  %13 = load ptr, ptr %6, align 8, !tbaa !67
  %14 = getelementptr inbounds nuw %struct.b2Segment, ptr %13, i32 0, i32 0
  %15 = getelementptr inbounds nuw { <2 x float>, <2 x float> }, ptr %5, i32 0, i32 0
  %16 = load <2 x float>, ptr %15, align 4
  %17 = getelementptr inbounds nuw { <2 x float>, <2 x float> }, ptr %5, i32 0, i32 1
  %18 = load <2 x float>, ptr %17, align 4
  %19 = load <2 x float>, ptr %14, align 4
  %20 = call <2 x float> @b2TransformPoint(<2 x float> %16, <2 x float> %18, <2 x float> %19)
  store <2 x float> %20, ptr %7, align 4
  call void @llvm.lifetime.start.p0(i64 8, ptr %8) #9
  %21 = load ptr, ptr %6, align 8, !tbaa !67
  %22 = getelementptr inbounds nuw %struct.b2Segment, ptr %21, i32 0, i32 1
  %23 = getelementptr inbounds nuw { <2 x float>, <2 x float> }, ptr %5, i32 0, i32 0
  %24 = load <2 x float>, ptr %23, align 4
  %25 = getelementptr inbounds nuw { <2 x float>, <2 x float> }, ptr %5, i32 0, i32 1
  %26 = load <2 x float>, ptr %25, align 4
  %27 = load <2 x float>, ptr %22, align 4
  %28 = call <2 x float> @b2TransformPoint(<2 x float> %24, <2 x float> %26, <2 x float> %27)
  store <2 x float> %28, ptr %8, align 4
  call void @llvm.lifetime.start.p0(i64 8, ptr %9) #9
  %29 = load <2 x float>, ptr %7, align 4
  %30 = load <2 x float>, ptr %8, align 4
  %31 = call <2 x float> @b2Min(<2 x float> %29, <2 x float> %30)
  store <2 x float> %31, ptr %9, align 4
  call void @llvm.lifetime.start.p0(i64 8, ptr %10) #9
  %32 = load <2 x float>, ptr %7, align 4
  %33 = load <2 x float>, ptr %8, align 4
  %34 = call <2 x float> @b2Max(<2 x float> %32, <2 x float> %33)
  store <2 x float> %34, ptr %10, align 4
  %35 = getelementptr inbounds nuw %struct.b2AABB, ptr %4, i32 0, i32 0
  call void @llvm.memcpy.p0.p0.i64(ptr align 4 %35, ptr align 4 %9, i64 8, i1 false), !tbaa.struct !26
  %36 = getelementptr inbounds nuw %struct.b2AABB, ptr %4, i32 0, i32 1
  call void @llvm.memcpy.p0.p0.i64(ptr align 4 %36, ptr align 4 %10, i64 8, i1 false), !tbaa.struct !26
  call void @llvm.lifetime.end.p0(i64 8, ptr %10) #9
  call void @llvm.lifetime.end.p0(i64 8, ptr %9) #9
  call void @llvm.lifetime.end.p0(i64 8, ptr %8) #9
  call void @llvm.lifetime.end.p0(i64 8, ptr %7) #9
  %37 = load { <2 x float>, <2 x float> }, ptr %4, align 4
  ret { <2 x float>, <2 x float> } %37
}