; Function Attrs: mustprogress nofree norecurse nosync nounwind willreturn memory(argmem: read) uwtable
define { <2 x float>, <2 x float> } @b2ComputeSegmentAABB(ptr noundef readonly captures(none) %0, <2 x float> %1, <2 x float> %2) local_unnamed_addr #8 {
  %4 = load <2 x float>, ptr %0, align 4
  %.sroa.3.8.vec.extract.i = extractelement <2 x float> %2, i64 0
  %.sroa.0.0.vec.extract.i = extractelement <2 x float> %4, i64 0
  %5 = fmul <2 x float> %2, %4
  %6 = extractelement <2 x float> %5, i64 0
  %.sroa.3.12.vec.extract.i = extractelement <2 x float> %2, i64 1
  %.sroa.0.4.vec.extract.i = extractelement <2 x float> %4, i64 1
  %7 = fmul float %.sroa.3.12.vec.extract.i, %.sroa.0.4.vec.extract.i
  %8 = fsub float %6, %7
  %.sroa.06.0.vec.extract.i = extractelement <2 x float> %1, i64 0
  %9 = fadd float %.sroa.06.0.vec.extract.i, %8
  %10 = fmul float %.sroa.3.12.vec.extract.i, %.sroa.0.0.vec.extract.i
  %11 = fmul float %.sroa.3.8.vec.extract.i, %.sroa.0.4.vec.extract.i
  %12 = fadd float %10, %11
  %.sroa.06.4.vec.extract.i = extractelement <2 x float> %1, i64 1
  %13 = fadd float %.sroa.06.4.vec.extract.i, %12
  %14 = getelementptr inbounds nuw i8, ptr %0, i64 8
  %15 = load <2 x float>, ptr %14, align 4
  %.sroa.0.0.vec.extract.i12 = extractelement <2 x float> %15, i64 0
  %16 = fmul <2 x float> %2, %15
  %17 = extractelement <2 x float> %16, i64 0
  %.sroa.0.4.vec.extract.i14 = extractelement <2 x float> %15, i64 1
  %18 = fmul float %.sroa.3.12.vec.extract.i, %.sroa.0.4.vec.extract.i14
  %19 = fsub float %17, %18
  %20 = fadd float %.sroa.06.0.vec.extract.i, %19
  %21 = fmul float %.sroa.3.12.vec.extract.i, %.sroa.0.0.vec.extract.i12
  %22 = fmul float %.sroa.3.8.vec.extract.i, %.sroa.0.4.vec.extract.i14
  %23 = fadd float %21, %22
  %24 = fadd float %.sroa.06.4.vec.extract.i, %23
  %25 = fcmp olt float %9, %20
  %26 = select i1 %25, float %9, float %20
  %.sroa.02.0.vec.insert.i = insertelement <2 x float> poison, float %26, i64 0
  %27 = fcmp olt float %13, %24
  %28 = select i1 %27, float %13, float %24
  %.sroa.02.4.vec.insert.i = insertelement <2 x float> %.sroa.02.0.vec.insert.i, float %28, i64 1
  %29 = fcmp ogt float %9, %20
  %30 = select i1 %29, float %9, float %20
  %.sroa.02.0.vec.insert.i22 = insertelement <2 x float> poison, float %30, i64 0
  %31 = fcmp ogt float %13, %24
  %32 = select i1 %31, float %13, float %24
  %.sroa.02.4.vec.insert.i24 = insertelement <2 x float> %.sroa.02.0.vec.insert.i22, float %32, i64 1
  %.fca.0.insert = insertvalue { <2 x float>, <2 x float> } poison, <2 x float> %.sroa.02.4.vec.insert.i, 0
  %.fca.1.insert = insertvalue { <2 x float>, <2 x float> } %.fca.0.insert, <2 x float> %.sroa.02.4.vec.insert.i24, 1
  ret { <2 x float>, <2 x float> } %.fca.1.insert
}